target datalayout = "e-m:e-p270:32:32-p271:32:32-p272:64:64-i64:64-i128:128-f80:128-n8:16:32:64-S128"
target triple = "x86_64-pc-linux-gnu"

@original = internal global i8 1, align 1
@.str.59 = private unnamed_addr constant [13 x i8] c"controller.c\00", align 1
@.str.63 = private unnamed_addr constant [27 x i8] c"SLURMCTLD_RECONF_PARENT_FD\00", align 1
@notify_parent_of_success.notified = internal global i8 0, align 1
@.str.64 = private unnamed_addr constant [27 x i8] c"child started successfully\00", align 1
@.str.65 = private unnamed_addr constant [45 x i8] c"%s:%d: %s: safe_write (%zu of %d) failed: %m\00", align 1
@__func__.notify_parent_of_success = private unnamed_addr constant [25 x i8] c"notify_parent_of_success\00", align 1
@.str.66 = private unnamed_addr constant [48 x i8] c"%s:%d: %s: safe_write (%zu of %d) partial write\00", align 1
@.str.67 = private unnamed_addr constant [60 x i8] c"failed to notify parent, may have two processes running now\00", align 1

; Function Attrs: inlinehint nounwind willreturn memory(read) uwtable
define available_externally i32 @atoi(ptr noundef nonnull %0) #9 {
  %2 = alloca ptr, align 8
  store ptr %0, ptr %2, align 8
  %3 = load ptr, ptr %2, align 8
  %4 = call i64 @strtol(ptr noundef %3, ptr noundef null, i32 noundef 10) #11
  %5 = trunc i64 %4 to i32
  ret i32 %5
}

; Function Attrs: nounwind uwtable
define dso_local void @notify_parent_of_success() #0 {
  %1 = alloca ptr, align 8
  %2 = alloca i32, align 4
  %3 = alloca i32, align 4
  %4 = alloca i32, align 4
  %5 = alloca i64, align 8
  %6 = alloca ptr, align 8
  %7 = alloca i32, align 4
  call void @llvm.lifetime.start.p0(i64 8, ptr %1) #11
  %8 = call ptr @getenv(ptr noundef @.str.63) #11
  store ptr %8, ptr %1, align 8
  call void @llvm.lifetime.start.p0(i64 4, ptr %2) #11
  %9 = call i32 @getpid() #11
  store i32 %9, ptr %2, align 4
  call void @llvm.lifetime.start.p0(i64 4, ptr %3) #11
  store i32 -1, ptr %3, align 4
  %10 = load i8, ptr @original, align 1, !range !8, !noundef !9
  %11 = trunc i8 %10 to i1
  br i1 %11, label %18, label %12

12:                                               ; preds = %0
  %13 = load ptr, ptr %1, align 8
  %14 = icmp ne ptr %13, null
  br i1 %14, label %15, label %18

15:                                               ; preds = %12
  %16 = load i8, ptr @notify_parent_of_success.notified, align 1, !range !8, !noundef !9
  %17 = trunc i8 %16 to i1
  br i1 %17, label %18, label %19

18:                                               ; preds = %15, %12, %0
  store i32 1, ptr %4, align 4
  br label %102

19:                                               ; preds = %15
  store i8 1, ptr @notify_parent_of_success.notified, align 1
  %20 = load ptr, ptr %1, align 8
  %21 = call i32 @atoi(ptr noundef %20) #15
  store i32 %21, ptr %3, align 4
  br label %22

22:                                               ; preds = %19
  br label %23

23:                                               ; preds = %22
  %24 = call i32 @get_log_level()
  %25 = icmp sge i32 %24, 3
  br i1 %25, label %26, label %27

26:                                               ; preds = %23
  call void (i32, ptr, ...) @log_var(i32 noundef 3, ptr noundef @.str.64)
  br label %27

27:                                               ; preds = %26, %23
  br label %28

28:                                               ; preds = %27
  br label %29

29:                                               ; preds = %28
  br label %30

30:                                               ; preds = %29
  br label %31

31:                                               ; preds = %30
  br label %32

32:                                               ; preds = %31
  call void @llvm.lifetime.start.p0(i64 8, ptr %5) #11
  store i64 4, ptr %5, align 8
  call void @llvm.lifetime.start.p0(i64 8, ptr %6) #11
  store ptr %2, ptr %6, align 8
  call void @llvm.lifetime.start.p0(i64 4, ptr %7) #11
  br label %33

33:                                               ; preds = %89, %52, %32
  %34 = load i64, ptr %5, align 8
  %35 = icmp ugt i64 %34, 0
  br i1 %35, label %36, label %90

36:                                               ; preds = %33
  %37 = load i32, ptr %3, align 4
  %38 = load ptr, ptr %6, align 8
  %39 = load i64, ptr %5, align 8
  %40 = call i64 @write(i32 noundef %37, ptr noundef %38, i64 noundef %39)
  %41 = trunc i64 %40 to i32
  store i32 %41, ptr %7, align 4
  %42 = load i32, ptr %7, align 4
  %43 = icmp slt i32 %42, 0
  br i1 %43, label %44, label %65

44:                                               ; preds = %36
  %45 = call ptr @__errno_location() #14
  %46 = load i32, ptr %45, align 4
  %47 = icmp eq i32 %46, 11
  br i1 %47, label %52, label %48

48:                                               ; preds = %44
  %49 = call ptr @__errno_location() #14
  %50 = load i32, ptr %49, align 4
  %51 = icmp eq i32 %50, 4
  br i1 %51, label %52, label %53

52:                                               ; preds = %48, %44
  br label %33, !llvm.loop !28

53:                                               ; preds = %48
  br label %54

54:                                               ; preds = %53
  br label %55

55:                                               ; preds = %54
  %56 = call i32 @get_log_level()
  %57 = icmp sge i32 %56, 5
  br i1 %57, label %58, label %60

58:                                               ; preds = %55
  %59 = load i64, ptr %5, align 8
  call void (i32, ptr, ...) @log_var(i32 noundef 5, ptr noundef @.str.65, ptr noundef @.str.59, i32 noundef 1429, ptr noundef @__func__.notify_parent_of_success, i64 noundef %59, i32 noundef 4)
  br label %60

60:                                               ; preds = %58, %55
  br label %61

61:                                               ; preds = %60
  br label %62

62:                                               ; preds = %61
  br label %63

63:                                               ; preds = %62
  br label %64

64:                                               ; preds = %63
  store i32 14, ptr %4, align 4
  br label %91

65:                                               ; preds = %36
  %66 = load i32, ptr %7, align 4
  %67 = load ptr, ptr %6, align 8
  %68 = sext i32 %66 to i64
  %69 = getelementptr inbounds i8, ptr %67, i64 %68
  store ptr %69, ptr %6, align 8
  %70 = load i32, ptr %7, align 4
  %71 = sext i32 %70 to i64
  %72 = load i64, ptr %5, align 8
  %73 = sub i64 %72, %71
  store i64 %73, ptr %5, align 8
  %74 = load i64, ptr %5, align 8
  %75 = icmp ugt i64 %74, 0
  br i1 %75, label %76, label %88

76:                                               ; preds = %65
  br label %77

77:                                               ; preds = %76
  br label %78

78:                                               ; preds = %77
  %79 = call i32 @get_log_level()
  %80 = icmp sge i32 %79, 7
  br i1 %80, label %81, label %83

81:                                               ; preds = %78
  %82 = load i64, ptr %5, align 8
  call void (i32, ptr, ...) @log_var(i32 noundef 7, ptr noundef @.str.66, ptr noundef @.str.59, i32 noundef 1429, ptr noundef @__func__.notify_parent_of_success, i64 noundef %82, i32 noundef 4)
  br label %83

83:                                               ; preds = %81, %78
  br label %84

84:                                               ; preds = %83
  br label %85

85:                                               ; preds = %84
  br label %86

86:                                               ; preds = %85
  br label %87

87:                                               ; preds = %86
  br label %88

88:                                               ; preds = %87, %65
  br label %89

89:                                               ; preds = %88
  br label %33, !llvm.loop !28

90:                                               ; preds = %33
  store i32 0, ptr %4, align 4
  br label %91

91:                                               ; preds = %64, %90
  call void @llvm.lifetime.end.p0(i64 4, ptr %7) #11
  call void @llvm.lifetime.end.p0(i64 8, ptr %6) #11
  call void @llvm.lifetime.end.p0(i64 8, ptr %5) #11
  %92 = load i32, ptr %4, align 4
  switch i32 %92, label %102 [
    i32 0, label %93
    i32 14, label %98
  ]

93:                                               ; preds = %91
  br label %94

94:                                               ; preds = %93
  br label %95

95:                                               ; preds = %94
  %96 = load i32, ptr %3, align 4
  %97 = call i32 @close(i32 noundef %96)
  store i32 1, ptr %4, align 4
  br label %102

98:                                               ; preds = %91
  %99 = call i32 (ptr, ...) @error(ptr noundef @.str.67)
  %100 = load i32, ptr %3, align 4
  %101 = call i32 @close(i32 noundef %100)
  store i32 0, ptr %4, align 4
  br label %102

102:                                              ; preds = %98, %95, %91, %18
  call void @llvm.lifetime.end.p0(i64 4, ptr %3) #11
  call void @llvm.lifetime.end.p0(i64 4, ptr %2) #11
  call void @llvm.lifetime.end.p0(i64 8, ptr %1) #11
  %103 = load i32, ptr %4, align 4
  switch i32 %103, label %105 [
    i32 0, label %104
    i32 1, label %104
  ]

104:                                              ; preds = %102, %102
  ret void

105:                                              ; preds = %102
  unreachable
}