; Function Attrs: nounwind uwtable
define dso_local void @notify_parent_of_success() local_unnamed_addr #6 {
  %1 = alloca i32, align 4
  %2 = tail call ptr @getenv(ptr noundef nonnull @.str.63) #19
  call void @llvm.lifetime.start.p0(i64 4, ptr nonnull %1) #19
  %3 = tail call i32 @getpid() #19
  store i32 %3, ptr %1, align 4
  %.b = load i1, ptr @original, align 1
  %4 = icmp ne ptr %2, null
  %or.cond = and i1 %4, %.b
  br i1 %or.cond, label %5, label %33

5:                                                ; preds = %0
  %.b2324 = load i1, ptr @notify_parent_of_success.notified, align 1
  br i1 %.b2324, label %33, label %6

6:                                                ; preds = %5
  store i1 true, ptr @notify_parent_of_success.notified, align 1
  %7 = tail call i64 @strtol(ptr noundef nonnull captures(none) %2, ptr noundef null, i32 noundef 10) #19
  %8 = trunc i64 %7 to i32
  %9 = tail call i32 @get_log_level() #19
  %10 = icmp sgt i32 %9, 2
  br i1 %10, label %11, label %.lr.ph.split.preheader

11:                                               ; preds = %6
  tail call void (i32, ptr, ...) @log_var(i32 noundef 3, ptr noundef nonnull @.str.64) #19
  br label %.lr.ph.split.preheader

.lr.ph.split.preheader:                           ; preds = %6, %11
  br label %.lr.ph.split

.lr.ph.split:                                     ; preds = %.lr.ph.split.backedge, %.lr.ph.split.preheader
  %.0.ph40 = phi ptr [ %1, %.lr.ph.split.preheader ], [ %24, %.lr.ph.split.backedge ]
  %.017.ph38 = phi i64 [ 4, %.lr.ph.split.preheader ], [ %25, %.lr.ph.split.backedge ]
  %12 = call i64 @write(i32 noundef %8, ptr noundef %.0.ph40, i64 noundef %.017.ph38) #19
  %13 = and i64 %12, 2147483648
  %.not2536 = icmp eq i64 %13, 0
  br i1 %.not2536, label %.split.us, label %.lr.ph37

.lr.ph37:                                         ; preds = %.lr.ph.split
  %14 = tail call ptr @__errno_location() #21
  br label %15

15:                                               ; preds = %.lr.ph37, %17
  %16 = load i32, ptr %14, align 4
  switch i32 %16, label %.split31.us [
    i32 11, label %17
    i32 4, label %17
  ]

17:                                               ; preds = %15, %15
  %18 = call i64 @write(i32 noundef %8, ptr noundef %.0.ph40, i64 noundef %.017.ph38) #19
  %19 = and i64 %18, 2147483648
  %.not25 = icmp eq i64 %19, 0
  br i1 %.not25, label %.split.us, label %15

.split31.us:                                      ; preds = %15
  %20 = tail call i32 @get_log_level() #19
  %21 = icmp sgt i32 %20, 4
  br i1 %21, label %22, label %30

22:                                               ; preds = %.split31.us
  tail call void (i32, ptr, ...) @log_var(i32 noundef 5, ptr noundef nonnull @.str.65, ptr noundef nonnull @.str.59, i32 noundef 1429, ptr noundef nonnull @__func__.notify_parent_of_success, i64 noundef %.017.ph38, i32 noundef 4) #19
  br label %30

.split.us:                                        ; preds = %17, %.lr.ph.split
  %.us-phi = phi i64 [ %12, %.lr.ph.split ], [ %18, %17 ]
  %23 = and i64 %.us-phi, 2147483647
  %24 = getelementptr inbounds nuw i8, ptr %.0.ph40, i64 %23
  %25 = sub i64 %.017.ph38, %23
  %.not26 = icmp eq i64 %25, 0
  br i1 %.not26, label %.sink.split, label %26

26:                                               ; preds = %.split.us
  %27 = tail call i32 @get_log_level() #19
  %28 = icmp sgt i32 %27, 6
  br i1 %28, label %29, label %.lr.ph.split.backedge

29:                                               ; preds = %26
  tail call void (i32, ptr, ...) @log_var(i32 noundef 7, ptr noundef nonnull @.str.66, ptr noundef nonnull @.str.59, i32 noundef 1429, ptr noundef nonnull @__func__.notify_parent_of_success, i64 noundef %25, i32 noundef 4) #19
  br label %.lr.ph.split.backedge

.lr.ph.split.backedge:                            ; preds = %29, %26
  br label %.lr.ph.split, !llvm.loop !28

30:                                               ; preds = %22, %.split31.us
  %31 = tail call i32 (ptr, ...) @error(ptr noundef nonnull @.str.67) #19
  br label %.sink.split

.sink.split:                                      ; preds = %.split.us, %30
  %32 = tail call i32 @close(i32 noundef %8) #19
  br label %33

33:                                               ; preds = %.sink.split, %0, %5
  call void @llvm.lifetime.end.p0(i64 4, ptr nonnull %1) #19
  ret void
}